; Function Attrs: mustprogress uwtable
define void @_ZNK8facebook5velox4core11OrderByNode10addDetailsERNSt7__cxx1118basic_stringstreamIcSt11char_traitsIcESaIcEEE(ptr nocapture noundef nonnull readonly align 8 dereferenceable(120) %this, ptr noundef nonnull align 8 dereferenceable(128) %stream) unnamed_addr #0 align 2 {
entry:
  %isPartial_ = getelementptr inbounds i8, ptr %this, i64 88
  %0 = load i8, ptr %isPartial_, align 8
  %1 = and i8 %0, 1
  %tobool.not = icmp eq i8 %1, 0
  br i1 %tobool.not, label %if.end, label %if.then

if.then:                                          ; preds = %entry
  %add.ptr = getelementptr inbounds i8, ptr %stream, i64 16
  %call = tail call noundef nonnull align 8 dereferenceable(8) ptr @_ZStlsISt11char_traitsIcEERSt13basic_ostreamIcT_ES5_PKc(ptr noundef nonnull align 8 dereferenceable(8) %add.ptr, ptr noundef nonnull @.str.118)
  br label %if.end

if.end:                                           ; preds = %if.then, %entry
  %sortingKeys_ = getelementptr inbounds i8, ptr %this, i64 40
  %sortingOrders_ = getelementptr inbounds i8, ptr %this, i64 64
  tail call fastcc void @_ZN8facebook5velox4core12_GLOBAL__N_114addSortingKeysERKSt6vectorISt10shared_ptrIKNS1_20FieldAccessTypedExprEESaIS7_EERKS3_INS1_9SortOrderESaISC_EERNSt7__cxx1118basic_stringstreamIcSt11char_traitsIcESaIcEEE(ptr noundef nonnull align 8 dereferenceable(24) %sortingKeys_, ptr noundef nonnull align 8 dereferenceable(24) %sortingOrders_, ptr noundef nonnull align 8 dereferenceable(128) %stream)
  ret void
}